target datalayout = "e-m:e-p270:32:32-p271:32:32-p272:64:64-i64:64-i128:128-f80:128-n8:16:32:64-S128"
target triple = "x86_64-pc-linux-gnu"

%class.Thread = type { %class.ThreadShadow.base, i64, [43 x i64], ptr, ptr, i32, ptr, i64, i64, %class.ThreadLocalAllocBuffer, i64, %class.ThreadHeapSampler, %class.ThreadStatisticalInfo, %class.JfrThreadLocal, ptr, ptr, ptr, ptr, ptr, ptr, i64, i32, i32, ptr, i32, i32, i32, i32, i8, ptr }
%class.ThreadShadow.base = type <{ ptr, ptr, ptr, i32 }>
%class.ThreadLocalAllocBuffer = type <{ ptr, ptr, ptr, ptr, ptr, i64, i64, i64, i64, i32, i32, i32, i32, i64, %class.AdaptiveWeightedAverage, [4 x i8] }>
%class.AdaptiveWeightedAverage = type { float, i32, i32, i8, float }
%class.ThreadHeapSampler = type { i64 }
%class.ThreadStatisticalInfo = type { i64, i64 }
%class.JfrThreadLocal = type <{ ptr, ptr, ptr, ptr, ptr, ptr, ptr, ptr, ptr, ptr, %class.RefCountHandle, i64, i64, i64, i64, i64, i64, i64, i64, i64, i64, i64, i32, i32, i32, i16, i8, i8, i8, i8, i8, [5 x i8] }>
%class.RefCountHandle = type { ptr }
%class.JfrThreadSampler = type <{ %class.NonJavaThread, %class.Semaphore, ptr, ptr, ptr, ptr, i64, i64, i64, i32, i32, i8, [7 x i8] }>
%class.NonJavaThread = type { %class.Thread, ptr }
%class.Semaphore = type { %class.PosixSemaphore }
%class.PosixSemaphore = type { %union.sem_t }
%union.sem_t = type { i64, [24 x i8] }
%"struct.Atomic::StoreImpl.21" = type { i8 }
%class.JfrThreadSampling = type { ptr }
%"struct.Atomic::LoadImpl.10" = type { i8 }
%"struct.Atomic::PlatformLoad.11" = type { i8 }
%"struct.Atomic::PlatformStore" = type { i8 }

@_ZL9_instance = internal global ptr null, align 8

; Function Attrs: mustprogress nounwind uwtable
define linkonce_odr hidden noundef i64 @_ZNK6Atomic12PlatformLoadILm8EEclIlEET_PVKS3_(ptr noundef nonnull align 1 dereferenceable(1) %0, ptr noundef %1) #1 comdat align 2 {
  %3 = alloca ptr, align 8
  %4 = alloca ptr, align 8
  store ptr %0, ptr %3, align 8
  store ptr %1, ptr %4, align 8
  %5 = load ptr, ptr %4, align 8
  %6 = load volatile i64, ptr %5, align 8
  ret i64 %6
}

; Function Attrs: mustprogress nounwind uwtable
define linkonce_odr hidden void @_ZNK6Atomic13PlatformStoreILm8EEclIlEEvPVT_S3_(ptr noundef nonnull align 1 dereferenceable(1) %0, ptr noundef %1, i64 noundef %2) #1 comdat align 2 {
  %4 = alloca ptr, align 8
  %5 = alloca ptr, align 8
  %6 = alloca i64, align 8
  store ptr %0, ptr %4, align 8
  store ptr %1, ptr %5, align 8
  store i64 %2, ptr %6, align 8
  %7 = load i64, ptr %6, align 8
  %8 = load ptr, ptr %5, align 8
  store volatile i64 %7, ptr %8, align 8
  ret void
}

; Function Attrs: mustprogress nounwind uwtable
define linkonce_odr hidden noundef i64 @_ZNK6Atomic8LoadImplIlNS_12PlatformLoadILm8EEEvEclEPVKl(ptr noundef nonnull align 1 dereferenceable(1) %0, ptr noundef %1) #1 comdat align 2 {
  %3 = alloca ptr, align 8
  %4 = alloca ptr, align 8
  %5 = alloca %"struct.Atomic::PlatformLoad.11", align 1
  store ptr %0, ptr %3, align 8
  store ptr %1, ptr %4, align 8
  %6 = load ptr, ptr %4, align 8
  %7 = call noundef i64 @_ZNK6Atomic12PlatformLoadILm8EEclIlEET_PVKS3_(ptr noundef nonnull align 1 dereferenceable(1) %5, ptr noundef %6)
  ret i64 %7
}

; Function Attrs: mustprogress nounwind uwtable
define linkonce_odr hidden void @_ZNK6Atomic9StoreImplIllNS_13PlatformStoreILm8EEEvEclEPVll(ptr noundef nonnull align 1 dereferenceable(1) %0, ptr noundef %1, i64 noundef %2) #1 comdat align 2 {
  %4 = alloca ptr, align 8
  %5 = alloca ptr, align 8
  %6 = alloca i64, align 8
  %7 = alloca %"struct.Atomic::PlatformStore", align 1
  store ptr %0, ptr %4, align 8
  store ptr %1, ptr %5, align 8
  store i64 %2, ptr %6, align 8
  %8 = load ptr, ptr %5, align 8
  %9 = load i64, ptr %6, align 8
  call void @_ZNK6Atomic13PlatformStoreILm8EEclIlEEvPVT_S3_(ptr noundef nonnull align 1 dereferenceable(1) %7, ptr noundef %8, i64 noundef %9)
  ret void
}

; Function Attrs: mustprogress nounwind uwtable
define linkonce_odr hidden noundef i64 @_ZN6Atomic4loadIlEET_PVKS1_(ptr noundef %0) #1 comdat align 2 {
  %2 = alloca ptr, align 8
  %3 = alloca %"struct.Atomic::LoadImpl.10", align 1
  store ptr %0, ptr %2, align 8
  %4 = load ptr, ptr %2, align 8
  %5 = call noundef i64 @_ZNK6Atomic8LoadImplIlNS_12PlatformLoadILm8EEEvEclEPVKl(ptr noundef nonnull align 1 dereferenceable(1) %3, ptr noundef %4)
  ret i64 %5
}

; Function Attrs: mustprogress nounwind uwtable
define linkonce_odr hidden void @_ZN6Atomic5storeIllEEvPVT_T0_(ptr noundef %0, i64 noundef %1) #1 comdat align 2 {
  %3 = alloca ptr, align 8
  %4 = alloca i64, align 8
  %5 = alloca %"struct.Atomic::StoreImpl.21", align 1
  store ptr %0, ptr %3, align 8
  store i64 %1, ptr %4, align 8
  %6 = load ptr, ptr %3, align 8
  %7 = load i64, ptr %4, align 8
  call void @_ZNK6Atomic9StoreImplIllNS_13PlatformStoreILm8EEEvEclEPVll(ptr noundef nonnull align 1 dereferenceable(1) %5, ptr noundef %6, i64 noundef %7)
  ret void
}

; Function Attrs: mustprogress nounwind uwtable
define linkonce_odr hidden noundef i64 @_ZNK16JfrThreadSampler15get_java_periodEv(ptr noundef nonnull align 8 dereferenceable(993) %0) #1 comdat align 2 {
  %2 = alloca ptr, align 8
  store ptr %0, ptr %2, align 8
  %3 = load ptr, ptr %2, align 8
  %4 = getelementptr inbounds %class.JfrThreadSampler, ptr %3, i32 0, i32 6
  %5 = call noundef i64 @_ZN6Atomic4loadIlEET_PVKS1_(ptr noundef %4)
  ret i64 %5
}

; Function Attrs: mustprogress nounwind uwtable
define hidden void @_ZN16JfrThreadSampler17set_native_periodEl(ptr noundef nonnull align 8 dereferenceable(993) %0, i64 noundef %1) #1 align 2 {
  %3 = alloca ptr, align 8
  %4 = alloca i64, align 8
  store ptr %0, ptr %3, align 8
  store i64 %1, ptr %4, align 8
  %5 = load ptr, ptr %3, align 8
  %6 = getelementptr inbounds %class.JfrThreadSampler, ptr %5, i32 0, i32 7
  %7 = load i64, ptr %4, align 8
  call void @_ZN6Atomic5storeIllEEvPVT_T0_(ptr noundef %6, i64 noundef %7)
  ret void
}

; Function Attrs: mustprogress nounwind uwtable
define linkonce_odr hidden noundef i64 @_ZNK16JfrThreadSampler17get_native_periodEv(ptr noundef nonnull align 8 dereferenceable(993) %0) #1 comdat align 2 {
  %2 = alloca ptr, align 8
  store ptr %0, ptr %2, align 8
  %3 = load ptr, ptr %2, align 8
  %4 = getelementptr inbounds %class.JfrThreadSampler, ptr %3, i32 0, i32 7
  %5 = call noundef i64 @_ZN6Atomic4loadIlEET_PVKS1_(ptr noundef %4)
  ret i64 %5
}

; Function Attrs: mustprogress nounwind uwtable
define hidden void @_ZN16JfrThreadSampler15set_java_periodEl(ptr noundef nonnull align 8 dereferenceable(993) %0, i64 noundef %1) #1 align 2 {
  %3 = alloca ptr, align 8
  %4 = alloca i64, align 8
  store ptr %0, ptr %3, align 8
  store i64 %1, ptr %4, align 8
  %5 = load ptr, ptr %3, align 8
  %6 = getelementptr inbounds %class.JfrThreadSampler, ptr %5, i32 0, i32 6
  %7 = load i64, ptr %4, align 8
  call void @_ZN6Atomic5storeIllEEvPVT_T0_(ptr noundef %6, i64 noundef %7)
  ret void
}

; Function Attrs: mustprogress nounwind uwtable
define hidden void @_ZN17JfrThreadSampling19set_sampling_periodEbl(ptr noundef nonnull align 8 dereferenceable(8) %0, i1 noundef zeroext %1, i64 noundef %2) #1 align 2 {
  %4 = alloca ptr, align 8
  %5 = alloca i8, align 1
  %6 = alloca i64, align 8
  %7 = alloca i64, align 8
  %8 = alloca i64, align 8
  store ptr %0, ptr %4, align 8
  %9 = zext i1 %1 to i8
  store i8 %9, ptr %5, align 1
  store i64 %2, ptr %6, align 8
  %10 = load ptr, ptr %4, align 8
  store i64 0, ptr %7, align 8
  store i64 0, ptr %8, align 8
  %11 = load i8, ptr %5, align 1
  %12 = trunc i8 %11 to i1
  br i1 %12, label %13, label %26

13:                                               ; preds = %3
  %14 = load i64, ptr %6, align 8
  store i64 %14, ptr %7, align 8
  %15 = getelementptr inbounds %class.JfrThreadSampling, ptr %10, i32 0, i32 0
  %16 = load ptr, ptr %15, align 8
  %17 = icmp ne ptr %16, null
  br i1 %17, label %18, label %25

18:                                               ; preds = %13
  %19 = getelementptr inbounds %class.JfrThreadSampling, ptr %10, i32 0, i32 0
  %20 = load ptr, ptr %19, align 8
  %21 = load i64, ptr %7, align 8
  call void @_ZN16JfrThreadSampler15set_java_periodEl(ptr noundef nonnull align 8 dereferenceable(993) %20, i64 noundef %21)
  %22 = getelementptr inbounds %class.JfrThreadSampling, ptr %10, i32 0, i32 0
  %23 = load ptr, ptr %22, align 8
  %24 = call noundef i64 @_ZNK16JfrThreadSampler17get_native_periodEv(ptr noundef nonnull align 8 dereferenceable(993) %23)
  store i64 %24, ptr %8, align 8
  br label %25

25:                                               ; preds = %18, %13
  br label %39

26:                                               ; preds = %3
  %27 = load i64, ptr %6, align 8
  store i64 %27, ptr %8, align 8
  %28 = getelementptr inbounds %class.JfrThreadSampling, ptr %10, i32 0, i32 0
  %29 = load ptr, ptr %28, align 8
  %30 = icmp ne ptr %29, null
  br i1 %30, label %31, label %38

31:                                               ; preds = %26
  %32 = getelementptr inbounds %class.JfrThreadSampling, ptr %10, i32 0, i32 0
  %33 = load ptr, ptr %32, align 8
  %34 = load i64, ptr %8, align 8
  call void @_ZN16JfrThreadSampler17set_native_periodEl(ptr noundef nonnull align 8 dereferenceable(993) %33, i64 noundef %34)
  %35 = getelementptr inbounds %class.JfrThreadSampling, ptr %10, i32 0, i32 0
  %36 = load ptr, ptr %35, align 8
  %37 = call noundef i64 @_ZNK16JfrThreadSampler15get_java_periodEv(ptr noundef nonnull align 8 dereferenceable(993) %36)
  store i64 %37, ptr %7, align 8
  br label %38

38:                                               ; preds = %31, %26
  br label %39

39:                                               ; preds = %38, %25
  %40 = load i64, ptr %7, align 8
  %41 = load i64, ptr %8, align 8
  call void @_ZN17JfrThreadSampling16update_run_stateEll(ptr noundef nonnull align 8 dereferenceable(8) %10, i64 noundef %40, i64 noundef %41)
  ret void
}

; Function Attrs: mustprogress nounwind uwtable
define hidden noundef nonnull align 8 dereferenceable(8) ptr @_ZN17JfrThreadSampling8instanceEv() #1 align 2 {
  %1 = load ptr, ptr @_ZL9_instance, align 8
  ret ptr %1
}

; Function Attrs: mustprogress nounwind uwtable
define hidden void @_ZN17JfrThreadSampling22set_java_sample_periodEl(i64 noundef %0) #1 align 2 {
  %2 = alloca i64, align 8
  store i64 %0, ptr %2, align 8
  %3 = load ptr, ptr @_ZL9_instance, align 8
  %4 = icmp eq ptr %3, null
  br i1 %4, label %5, label %9

5:                                                ; preds = %1
  %6 = load i64, ptr %2, align 8
  %7 = icmp eq i64 0, %6
  br i1 %7, label %8, label %9

8:                                                ; preds = %5
  br label %12

9:                                                ; preds = %5, %1
  %10 = call noundef nonnull align 8 dereferenceable(8) ptr @_ZN17JfrThreadSampling8instanceEv()
  %11 = load i64, ptr %2, align 8
  call void @_ZN17JfrThreadSampling19set_sampling_periodEbl(ptr noundef nonnull align 8 dereferenceable(8) %10, i1 noundef zeroext true, i64 noundef %11)
  br label %12

12:                                               ; preds = %9, %8
  ret void
}