; Function Attrs: mustprogress nounwind uwtable
define hidden void @_ZN17JfrThreadSampling22set_java_sample_periodEl(i64 noundef %0) local_unnamed_addr #0 align 2 {
  %2 = load ptr, ptr @_ZL9_instance, align 8
  %3 = icmp eq ptr %2, null
  %4 = icmp eq i64 %0, 0
  %or.cond = and i1 %4, %3
  br i1 %or.cond, label %12, label %5

5:                                                ; preds = %1
  %6 = load ptr, ptr %2, align 8
  %.not10.i = icmp eq ptr %6, null
  br i1 %.not10.i, label %_ZN17JfrThreadSampling19set_sampling_periodEbl.exit, label %7

7:                                                ; preds = %5
  %8 = getelementptr inbounds i8, ptr %6, i64 960
  store volatile i64 %0, ptr %8, align 8
  %9 = load ptr, ptr %2, align 8
  %10 = getelementptr inbounds i8, ptr %9, i64 968
  %11 = load volatile i64, ptr %10, align 8
  br label %_ZN17JfrThreadSampling19set_sampling_periodEbl.exit

_ZN17JfrThreadSampling19set_sampling_periodEbl.exit: ; preds = %5, %7
  %.0.i = phi i64 [ %11, %7 ], [ 0, %5 ]
  tail call void @_ZN17JfrThreadSampling16update_run_stateEll(ptr noundef nonnull align 8 dereferenceable(8) %2, i64 noundef %0, i64 noundef %.0.i)
  br label %12

12:                                               ; preds = %1, %_ZN17JfrThreadSampling19set_sampling_periodEbl.exit
  ret void
}